; Function Attrs: mustprogress uwtable
define hidden void @_ZN4cvc58internal13SygusDatatype14addConstructorENS0_4kind6Kind_tERKSt6vectorINS0_8TypeNodeESaIS5_EEi(ptr noundef nonnull align 8 dereferenceable(472) %0, i32 noundef %1, ptr noundef nonnull align 8 dereferenceable(24) %2, i32 noundef %3) local_unnamed_addr #3 align 2 personality ptr @__gxx_personality_v0 {
  %5 = alloca %"class.cvc5::internal::NodeTemplate", align 8
  %6 = alloca %"class.cvc5::internal::NodeTemplate.127", align 8
  %7 = alloca %"class.std::__cxx11::basic_string", align 8
  %8 = tail call noundef ptr @_ZN4cvc58internal11NodeManager9currentNMEv()
  call void @llvm.lifetime.start.p0(i64 8, ptr nonnull %6) #21
  call void @_ZN4cvc58internal11NodeManager10operatorOfENS0_4kind6Kind_tE(ptr dead_on_unwind nonnull writable sret(%"class.cvc5::internal::NodeTemplate.127") align 8 %6, ptr noundef nonnull align 8 dereferenceable(3560) %8, i32 noundef %1)
  %9 = load ptr, ptr %6, align 8, !tbaa !72
  store ptr %9, ptr %5, align 8, !tbaa !25
  %10 = load i64, ptr %9, align 8
  %11 = lshr i64 %10, 40
  %12 = trunc nuw nsw i64 %11 to i32
  %13 = and i32 %12, 1048575
  %14 = icmp samesign ult i32 %13, 1048574
  br i1 %14, label %15, label %20, !prof !29

15:                                               ; preds = %4
  %16 = add i64 %10, 1099511627776
  %17 = and i64 %16, 1152920405095219200
  %18 = and i64 %10, -1152920405095219201
  %19 = or disjoint i64 %17, %18
  store i64 %19, ptr %9, align 8
  br label %_ZN4cvc58internal12NodeTemplateILb1EEC2ERKNS1_ILb0EEE.exit

20:                                               ; preds = %4
  %21 = icmp eq i32 %13, 1048574
  br i1 %21, label %22, label %_ZN4cvc58internal12NodeTemplateILb1EEC2ERKNS1_ILb0EEE.exit, !prof !28

22:                                               ; preds = %20
  %23 = or i64 %10, 1152920405095219200
  store i64 %23, ptr %9, align 8
  call void @_ZN4cvc58internal4expr9NodeValue20markRefCountMaxedOutEv(ptr noundef nonnull align 8 dereferenceable(24) %9)
  br label %_ZN4cvc58internal12NodeTemplateILb1EEC2ERKNS1_ILb0EEE.exit

_ZN4cvc58internal12NodeTemplateILb1EEC2ERKNS1_ILb0EEE.exit: ; preds = %22, %20, %15
  call void @llvm.lifetime.start.p0(i64 32, ptr nonnull %7) #21
  invoke void @_ZN4cvc58internal4kind12kindToStringB5cxx11ENS1_6Kind_tE(ptr dead_on_unwind nonnull writable sret(%"class.std::__cxx11::basic_string") align 8 %7, i32 noundef %1)
          to label %24 unwind label %46

24:                                               ; preds = %_ZN4cvc58internal12NodeTemplateILb1EEC2ERKNS1_ILb0EEE.exit
  invoke void @_ZN4cvc58internal13SygusDatatype14addConstructorENS0_12NodeTemplateILb1EEERKNSt7__cxx1112basic_stringIcSt11char_traitsIcESaIcEEERKSt6vectorINS0_8TypeNodeESaISD_EEi(ptr noundef nonnull align 8 dereferenceable(472) %0, ptr noundef nonnull %5, ptr noundef nonnull align 8 dereferenceable(32) %7, ptr noundef nonnull align 8 dereferenceable(24) %2, i32 noundef %3)
          to label %25 unwind label %48

25:                                               ; preds = %24
  %26 = load ptr, ptr %7, align 8, !tbaa !9
  %27 = getelementptr inbounds nuw i8, ptr %7, i64 16
  %28 = icmp eq ptr %26, %27
  br i1 %28, label %_ZNKSt7__cxx1112basic_stringIcSt11char_traitsIcESaIcEE11_M_is_localEv.exit.thread.i.i, label %_ZNKSt7__cxx1112basic_stringIcSt11char_traitsIcESaIcEE11_M_is_localEv.exit.i.i

_ZNKSt7__cxx1112basic_stringIcSt11char_traitsIcESaIcEE11_M_is_localEv.exit.thread.i.i: ; preds = %25
  %29 = getelementptr inbounds nuw i8, ptr %7, i64 8
  %30 = load i64, ptr %29, align 8, !tbaa !12
  %31 = icmp ult i64 %30, 16
  call void @llvm.assume(i1 %31)
  br label %_ZNSt7__cxx1112basic_stringIcSt11char_traitsIcESaIcEED2Ev.exit

_ZNKSt7__cxx1112basic_stringIcSt11char_traitsIcESaIcEE11_M_is_localEv.exit.i.i: ; preds = %25
  %32 = load i64, ptr %27, align 8, !tbaa !14
  %33 = add i64 %32, 1
  call void @_ZdlPvm(ptr noundef %26, i64 noundef %33) #22
  br label %_ZNSt7__cxx1112basic_stringIcSt11char_traitsIcESaIcEED2Ev.exit

_ZNSt7__cxx1112basic_stringIcSt11char_traitsIcESaIcEED2Ev.exit: ; preds = %_ZNKSt7__cxx1112basic_stringIcSt11char_traitsIcESaIcEE11_M_is_localEv.exit.thread.i.i, %_ZNKSt7__cxx1112basic_stringIcSt11char_traitsIcESaIcEE11_M_is_localEv.exit.i.i
  call void @llvm.lifetime.end.p0(i64 32, ptr nonnull %7) #21
  %34 = load i64, ptr %9, align 8
  %35 = and i64 %34, 1152920405095219200
  %.not.i.i = icmp eq i64 %35, 1152920405095219200
  br i1 %.not.i.i, label %_ZN4cvc58internal12NodeTemplateILb1EED2Ev.exit, label %36, !prof !28

36:                                               ; preds = %_ZNSt7__cxx1112basic_stringIcSt11char_traitsIcESaIcEED2Ev.exit
  %37 = add i64 %34, 1152920405095219200
  %38 = and i64 %37, 1152920405095219200
  %39 = and i64 %34, -1152920405095219201
  %40 = or disjoint i64 %38, %39
  store i64 %40, ptr %9, align 8
  %41 = icmp eq i64 %38, 0
  br i1 %41, label %42, label %_ZN4cvc58internal12NodeTemplateILb1EED2Ev.exit, !prof !28

42:                                               ; preds = %36
  invoke void @_ZN4cvc58internal4expr9NodeValue15markForDeletionEv(ptr noundef nonnull align 8 dereferenceable(24) %9)
          to label %_ZN4cvc58internal12NodeTemplateILb1EED2Ev.exit unwind label %43

43:                                               ; preds = %42
  %44 = landingpad { ptr, i32 }
          catch ptr null
  %45 = extractvalue { ptr, i32 } %44, 0
  call void @__clang_call_terminate(ptr %45) #24
  unreachable

_ZN4cvc58internal12NodeTemplateILb1EED2Ev.exit:   ; preds = %_ZNSt7__cxx1112basic_stringIcSt11char_traitsIcESaIcEED2Ev.exit, %36, %42
  call void @llvm.lifetime.end.p0(i64 8, ptr nonnull %6) #21
  ret void

46:                                               ; preds = %_ZN4cvc58internal12NodeTemplateILb1EEC2ERKNS1_ILb0EEE.exit
  %47 = landingpad { ptr, i32 }
          cleanup
  br label %_ZNSt7__cxx1112basic_stringIcSt11char_traitsIcESaIcEED2Ev.exit13

48:                                               ; preds = %24
  %49 = landingpad { ptr, i32 }
          cleanup
  %50 = load ptr, ptr %7, align 8, !tbaa !9
  %51 = getelementptr inbounds nuw i8, ptr %7, i64 16
  %52 = icmp eq ptr %50, %51
  br i1 %52, label %_ZNKSt7__cxx1112basic_stringIcSt11char_traitsIcESaIcEE11_M_is_localEv.exit.thread.i.i12, label %_ZNKSt7__cxx1112basic_stringIcSt11char_traitsIcESaIcEE11_M_is_localEv.exit.i.i11

_ZNKSt7__cxx1112basic_stringIcSt11char_traitsIcESaIcEE11_M_is_localEv.exit.thread.i.i12: ; preds = %48
  %53 = getelementptr inbounds nuw i8, ptr %7, i64 8
  %54 = load i64, ptr %53, align 8, !tbaa !12
  %55 = icmp ult i64 %54, 16
  call void @llvm.assume(i1 %55)
  br label %_ZNSt7__cxx1112basic_stringIcSt11char_traitsIcESaIcEED2Ev.exit13

_ZNKSt7__cxx1112basic_stringIcSt11char_traitsIcESaIcEE11_M_is_localEv.exit.i.i11: ; preds = %48
  %56 = load i64, ptr %51, align 8, !tbaa !14
  %57 = add i64 %56, 1
  call void @_ZdlPvm(ptr noundef %50, i64 noundef %57) #22
  br label %_ZNSt7__cxx1112basic_stringIcSt11char_traitsIcESaIcEED2Ev.exit13

_ZNSt7__cxx1112basic_stringIcSt11char_traitsIcESaIcEED2Ev.exit13: ; preds = %_ZNKSt7__cxx1112basic_stringIcSt11char_traitsIcESaIcEE11_M_is_localEv.exit.i.i11, %_ZNKSt7__cxx1112basic_stringIcSt11char_traitsIcESaIcEE11_M_is_localEv.exit.thread.i.i12, %46
  %.pn = phi { ptr, i32 } [ %47, %46 ], [ %49, %_ZNKSt7__cxx1112basic_stringIcSt11char_traitsIcESaIcEE11_M_is_localEv.exit.thread.i.i12 ], [ %49, %_ZNKSt7__cxx1112basic_stringIcSt11char_traitsIcESaIcEE11_M_is_localEv.exit.i.i11 ]
  call void @llvm.lifetime.end.p0(i64 32, ptr nonnull %7) #21
  call void @_ZN4cvc58internal12NodeTemplateILb1EED2Ev(ptr noundef nonnull align 8 dereferenceable(8) %5) #21
  call void @llvm.lifetime.end.p0(i64 8, ptr nonnull %6) #21
  resume { ptr, i32 } %.pn
}